target datalayout = "e-m:e-p270:32:32-p271:32:32-p272:64:64-i64:64-i128:128-f80:128-n8:16:32:64-S128"
target triple = "x86_64-pc-linux-gnu"

%"struct.clang::interp::Descriptor" = type { %"class.llvm::PointerUnion", i32, i32, i32, i32, ptr, ptr, %"class.std::optional.2", i8, i8, i8, i8, i8, ptr, ptr, ptr }
%"class.llvm::PointerUnion" = type { %"class.llvm::pointer_union_detail::PointerUnionMembers" }
%"class.llvm::pointer_union_detail::PointerUnionMembers" = type { %"class.llvm::pointer_union_detail::PointerUnionMembers.0" }
%"class.llvm::pointer_union_detail::PointerUnionMembers.0" = type { %"class.llvm::pointer_union_detail::PointerUnionMembers.1" }
%"class.llvm::pointer_union_detail::PointerUnionMembers.1" = type { %"class.llvm::PointerIntPair" }
%"class.llvm::PointerIntPair" = type { %"struct.llvm::detail::PunnedPointer" }
%"struct.llvm::detail::PunnedPointer" = type { [8 x i8] }
%"class.std::optional.2" = type { %"struct.std::_Optional_base.3" }
%"struct.std::_Optional_base.3" = type { %"struct.std::_Optional_payload.5" }
%"struct.std::_Optional_payload.5" = type { %"struct.std::_Optional_payload_base.base.7", [3 x i8] }
%"struct.std::_Optional_payload_base.base.7" = type <{ %"union.std::_Optional_payload_base<clang::interp::PrimType>::_Storage", i8 }>
%"union.std::_Optional_payload_base<clang::interp::PrimType>::_Storage" = type { i32 }
%"class.clang::interp::Record" = type <{ ptr, %"class.llvm::SmallVector", %"class.llvm::SmallVector.10", %"class.llvm::SmallVector.15", %"class.llvm::DenseMap", %"class.llvm::DenseMap.17", %"class.llvm::DenseMap.20", i32, i32, i8, [7 x i8] }>
%"class.llvm::SmallVector" = type { %"class.llvm::SmallVectorImpl", %"struct.llvm::SmallVectorStorage" }
%"class.llvm::SmallVectorImpl" = type { %"class.llvm::SmallVectorTemplateBase" }
%"class.llvm::SmallVectorTemplateBase" = type { %"class.llvm::SmallVectorTemplateCommon" }
%"class.llvm::SmallVectorTemplateCommon" = type { %"class.llvm::SmallVectorBase" }
%"class.llvm::SmallVectorBase" = type { ptr, i32, i32 }
%"struct.llvm::SmallVectorStorage" = type { [256 x i8] }
%"class.llvm::SmallVector.10" = type { %"class.llvm::SmallVectorImpl.11", %"struct.llvm::SmallVectorStorage.14" }
%"class.llvm::SmallVectorImpl.11" = type { %"class.llvm::SmallVectorTemplateBase.12" }
%"class.llvm::SmallVectorTemplateBase.12" = type { %"class.llvm::SmallVectorTemplateCommon.13" }
%"class.llvm::SmallVectorTemplateCommon.13" = type { %"class.llvm::SmallVectorBase" }
%"struct.llvm::SmallVectorStorage.14" = type { [192 x i8] }
%"class.llvm::SmallVector.15" = type { %"class.llvm::SmallVectorImpl", %"struct.llvm::SmallVectorStorage.16" }
%"struct.llvm::SmallVectorStorage.16" = type { [64 x i8] }
%"class.llvm::DenseMap" = type <{ ptr, i32, i32, i32, [4 x i8] }>
%"class.llvm::DenseMap.17" = type <{ ptr, i32, i32, i32, [4 x i8] }>
%"class.llvm::DenseMap.20" = type <{ ptr, i32, i32, i32, [4 x i8] }>
%"class.llvm::iterator_range" = type { ptr, ptr }
%"class.llvm::iterator_range.63" = type { ptr, ptr }
%"struct.clang::interp::Record::Base" = type { ptr, i32, ptr, ptr }
%"struct.clang::interp::Record::Field" = type { ptr, i32, ptr }

; Function Attrs: mustprogress nounwind uwtable
define linkonce_odr hidden void @_ZN4llvm14iterator_rangeIPKN5clang6interp6Record5FieldEEC2ES6_S6_(ptr noundef nonnull align 8 dereferenceable(16) %0, ptr noundef %1, ptr noundef %2) unnamed_addr #0 comdat align 2 {
  %4 = alloca ptr, align 8
  %5 = alloca ptr, align 8
  %6 = alloca ptr, align 8
  store ptr %0, ptr %4, align 8
  store ptr %1, ptr %5, align 8
  store ptr %2, ptr %6, align 8
  %7 = load ptr, ptr %4, align 8
  %8 = getelementptr inbounds nuw %"class.llvm::iterator_range.63", ptr %7, i32 0, i32 0
  %9 = load ptr, ptr %5, align 8
  store ptr %9, ptr %8, align 8
  %10 = getelementptr inbounds nuw %"class.llvm::iterator_range.63", ptr %7, i32 0, i32 1
  %11 = load ptr, ptr %6, align 8
  store ptr %11, ptr %10, align 8
  ret void
}

; Function Attrs: mustprogress nounwind uwtable
define linkonce_odr hidden void @_ZN4llvm14iterator_rangeIPKN5clang6interp6Record4BaseEEC2ES6_S6_(ptr noundef nonnull align 8 dereferenceable(16) %0, ptr noundef %1, ptr noundef %2) unnamed_addr #0 comdat align 2 {
  %4 = alloca ptr, align 8
  %5 = alloca ptr, align 8
  %6 = alloca ptr, align 8
  store ptr %0, ptr %4, align 8
  store ptr %1, ptr %5, align 8
  store ptr %2, ptr %6, align 8
  %7 = load ptr, ptr %4, align 8
  %8 = getelementptr inbounds nuw %"class.llvm::iterator_range", ptr %7, i32 0, i32 0
  %9 = load ptr, ptr %5, align 8
  store ptr %9, ptr %8, align 8
  %10 = getelementptr inbounds nuw %"class.llvm::iterator_range", ptr %7, i32 0, i32 1
  %11 = load ptr, ptr %6, align 8
  store ptr %11, ptr %10, align 8
  ret void
}

; Function Attrs: mustprogress nounwind uwtable
define linkonce_odr { ptr, ptr } @_ZN4llvm10make_rangeIPKN5clang6interp6Record5FieldEEENS_14iterator_rangeIT_EES8_S8_(ptr noundef %0, ptr noundef %1) #0 comdat {
  %3 = alloca %"class.llvm::iterator_range.63", align 8
  %4 = alloca ptr, align 8
  %5 = alloca ptr, align 8
  store ptr %0, ptr %4, align 8
  store ptr %1, ptr %5, align 8
  %6 = load ptr, ptr %4, align 8
  %7 = load ptr, ptr %5, align 8
  call void @_ZN4llvm14iterator_rangeIPKN5clang6interp6Record5FieldEEC2ES6_S6_(ptr noundef nonnull align 8 dereferenceable(16) %3, ptr noundef %6, ptr noundef %7)
  %8 = load { ptr, ptr }, ptr %3, align 8
  ret { ptr, ptr } %8
}

; Function Attrs: mustprogress nounwind uwtable
define linkonce_odr hidden noundef ptr @_ZNK4llvm25SmallVectorTemplateCommonIN5clang6interp6Record5FieldEvE3endEv(ptr noundef nonnull align 8 dereferenceable(16) %0) #0 comdat align 2 {
  %2 = alloca ptr, align 8
  store ptr %0, ptr %2, align 8
  %3 = load ptr, ptr %2, align 8
  %4 = call noundef ptr @_ZNK4llvm25SmallVectorTemplateCommonIN5clang6interp6Record5FieldEvE5beginEv(ptr noundef nonnull align 8 dereferenceable(16) %3)
  %5 = call noundef i64 @_ZNK4llvm15SmallVectorBaseIjE4sizeEv(ptr noundef nonnull align 8 dereferenceable(16) %3)
  %6 = getelementptr inbounds %"struct.clang::interp::Record::Field", ptr %4, i64 %5
  ret ptr %6
}

; Function Attrs: mustprogress nounwind uwtable
define linkonce_odr hidden noundef ptr @_ZNK4llvm25SmallVectorTemplateCommonIN5clang6interp6Record5FieldEvE5beginEv(ptr noundef nonnull align 8 dereferenceable(16) %0) #0 comdat align 2 {
  %2 = alloca ptr, align 8
  store ptr %0, ptr %2, align 8
  %3 = load ptr, ptr %2, align 8
  %4 = getelementptr inbounds nuw %"class.llvm::SmallVectorBase", ptr %3, i32 0, i32 0
  %5 = load ptr, ptr %4, align 8
  ret ptr %5
}

; Function Attrs: mustprogress nounwind uwtable
define linkonce_odr { ptr, ptr } @_ZN4llvm10make_rangeIPKN5clang6interp6Record4BaseEEENS_14iterator_rangeIT_EES8_S8_(ptr noundef %0, ptr noundef %1) #0 comdat {
  %3 = alloca %"class.llvm::iterator_range", align 8
  %4 = alloca ptr, align 8
  %5 = alloca ptr, align 8
  store ptr %0, ptr %4, align 8
  store ptr %1, ptr %5, align 8
  %6 = load ptr, ptr %4, align 8
  %7 = load ptr, ptr %5, align 8
  call void @_ZN4llvm14iterator_rangeIPKN5clang6interp6Record4BaseEEC2ES6_S6_(ptr noundef nonnull align 8 dereferenceable(16) %3, ptr noundef %6, ptr noundef %7)
  %8 = load { ptr, ptr }, ptr %3, align 8
  ret { ptr, ptr } %8
}

; Function Attrs: mustprogress nounwind uwtable
define linkonce_odr hidden noundef ptr @_ZNK4llvm25SmallVectorTemplateCommonIN5clang6interp6Record4BaseEvE3endEv(ptr noundef nonnull align 8 dereferenceable(16) %0) #0 comdat align 2 {
  %2 = alloca ptr, align 8
  store ptr %0, ptr %2, align 8
  %3 = load ptr, ptr %2, align 8
  %4 = call noundef ptr @_ZNK4llvm25SmallVectorTemplateCommonIN5clang6interp6Record4BaseEvE5beginEv(ptr noundef nonnull align 8 dereferenceable(16) %3)
  %5 = call noundef i64 @_ZNK4llvm15SmallVectorBaseIjE4sizeEv(ptr noundef nonnull align 8 dereferenceable(16) %3)
  %6 = getelementptr inbounds %"struct.clang::interp::Record::Base", ptr %4, i64 %5
  ret ptr %6
}

; Function Attrs: mustprogress nounwind uwtable
define linkonce_odr hidden noundef ptr @_ZNK4llvm25SmallVectorTemplateCommonIN5clang6interp6Record4BaseEvE5beginEv(ptr noundef nonnull align 8 dereferenceable(16) %0) #0 comdat align 2 {
  %2 = alloca ptr, align 8
  store ptr %0, ptr %2, align 8
  %3 = load ptr, ptr %2, align 8
  %4 = getelementptr inbounds nuw %"class.llvm::SmallVectorBase", ptr %3, i32 0, i32 0
  %5 = load ptr, ptr %4, align 8
  ret ptr %5
}

; Function Attrs: mustprogress nounwind uwtable
define linkonce_odr hidden { ptr, ptr } @_ZNK5clang6interp6Record13virtual_basesEv(ptr noundef nonnull align 8 dereferenceable(656) %0) #0 comdat align 2 {
  %2 = alloca %"class.llvm::iterator_range", align 8
  %3 = alloca ptr, align 8
  store ptr %0, ptr %3, align 8
  %4 = load ptr, ptr %3, align 8
  %5 = getelementptr inbounds nuw %"class.clang::interp::Record", ptr %4, i32 0, i32 3
  %6 = call noundef ptr @_ZNK4llvm25SmallVectorTemplateCommonIN5clang6interp6Record4BaseEvE5beginEv(ptr noundef nonnull align 8 dereferenceable(16) %5)
  %7 = getelementptr inbounds nuw %"class.clang::interp::Record", ptr %4, i32 0, i32 3
  %8 = call noundef ptr @_ZNK4llvm25SmallVectorTemplateCommonIN5clang6interp6Record4BaseEvE3endEv(ptr noundef nonnull align 8 dereferenceable(16) %7)
  %9 = call { ptr, ptr } @_ZN4llvm10make_rangeIPKN5clang6interp6Record4BaseEEENS_14iterator_rangeIT_EES8_S8_(ptr noundef %6, ptr noundef %8)
  %10 = getelementptr inbounds nuw { ptr, ptr }, ptr %2, i32 0, i32 0
  %11 = extractvalue { ptr, ptr } %9, 0
  store ptr %11, ptr %10, align 8
  %12 = getelementptr inbounds nuw { ptr, ptr }, ptr %2, i32 0, i32 1
  %13 = extractvalue { ptr, ptr } %9, 1
  store ptr %13, ptr %12, align 8
  %14 = load { ptr, ptr }, ptr %2, align 8
  ret { ptr, ptr } %14
}

; Function Attrs: mustprogress nounwind uwtable
define internal void @_ZL12destroyFieldPN5clang6interp5BlockEPSt4bytePKNS0_10DescriptorEj(ptr noundef %0, ptr noundef %1, ptr noundef %2, i32 noundef %3) #0 {
  %5 = alloca ptr, align 8
  %6 = alloca ptr, align 8
  %7 = alloca ptr, align 8
  %8 = alloca i32, align 4
  %9 = alloca ptr, align 8
  store ptr %0, ptr %5, align 8
  store ptr %1, ptr %6, align 8
  store ptr %2, ptr %7, align 8
  store i32 %3, ptr %8, align 4
  %10 = load ptr, ptr %7, align 8
  %11 = getelementptr inbounds nuw %"struct.clang::interp::Descriptor", ptr %10, i32 0, i32 14
  %12 = load ptr, ptr %11, align 8
  store ptr %12, ptr %9, align 8
  %13 = load ptr, ptr %9, align 8
  %14 = icmp ne ptr %13, null
  br i1 %14, label %15, label %23

15:                                               ; preds = %4
  %16 = load ptr, ptr %9, align 8
  %17 = load ptr, ptr %5, align 8
  %18 = load ptr, ptr %6, align 8
  %19 = load i32, ptr %8, align 4
  %20 = zext i32 %19 to i64
  %21 = getelementptr inbounds i8, ptr %18, i64 %20
  %22 = load ptr, ptr %7, align 8
  call void %16(ptr noundef %17, ptr noundef %21, ptr noundef %22)
  br label %23

23:                                               ; preds = %15, %4
  ret void
}

; Function Attrs: mustprogress nounwind uwtable
define linkonce_odr hidden noundef ptr @_ZNK4llvm14iterator_rangeIPKN5clang6interp6Record5FieldEE3endEv(ptr noundef nonnull align 8 dereferenceable(16) %0) #0 comdat align 2 {
  %2 = alloca ptr, align 8
  store ptr %0, ptr %2, align 8
  %3 = load ptr, ptr %2, align 8
  %4 = getelementptr inbounds nuw %"class.llvm::iterator_range.63", ptr %3, i32 0, i32 1
  %5 = load ptr, ptr %4, align 8
  ret ptr %5
}

; Function Attrs: mustprogress nounwind uwtable
define linkonce_odr hidden noundef ptr @_ZNK4llvm14iterator_rangeIPKN5clang6interp6Record5FieldEE5beginEv(ptr noundef nonnull align 8 dereferenceable(16) %0) #0 comdat align 2 {
  %2 = alloca ptr, align 8
  store ptr %0, ptr %2, align 8
  %3 = load ptr, ptr %2, align 8
  %4 = getelementptr inbounds nuw %"class.llvm::iterator_range.63", ptr %3, i32 0, i32 0
  %5 = load ptr, ptr %4, align 8
  ret ptr %5
}

; Function Attrs: mustprogress nounwind uwtable
define linkonce_odr hidden { ptr, ptr } @_ZNK5clang6interp6Record6fieldsEv(ptr noundef nonnull align 8 dereferenceable(656) %0) #0 comdat align 2 {
  %2 = alloca %"class.llvm::iterator_range.63", align 8
  %3 = alloca ptr, align 8
  store ptr %0, ptr %3, align 8
  %4 = load ptr, ptr %3, align 8
  %5 = getelementptr inbounds nuw %"class.clang::interp::Record", ptr %4, i32 0, i32 2
  %6 = call noundef ptr @_ZNK4llvm25SmallVectorTemplateCommonIN5clang6interp6Record5FieldEvE5beginEv(ptr noundef nonnull align 8 dereferenceable(16) %5)
  %7 = getelementptr inbounds nuw %"class.clang::interp::Record", ptr %4, i32 0, i32 2
  %8 = call noundef ptr @_ZNK4llvm25SmallVectorTemplateCommonIN5clang6interp6Record5FieldEvE3endEv(ptr noundef nonnull align 8 dereferenceable(16) %7)
  %9 = call { ptr, ptr } @_ZN4llvm10make_rangeIPKN5clang6interp6Record5FieldEEENS_14iterator_rangeIT_EES8_S8_(ptr noundef %6, ptr noundef %8)
  %10 = getelementptr inbounds nuw { ptr, ptr }, ptr %2, i32 0, i32 0
  %11 = extractvalue { ptr, ptr } %9, 0
  store ptr %11, ptr %10, align 8
  %12 = getelementptr inbounds nuw { ptr, ptr }, ptr %2, i32 0, i32 1
  %13 = extractvalue { ptr, ptr } %9, 1
  store ptr %13, ptr %12, align 8
  %14 = load { ptr, ptr }, ptr %2, align 8
  ret { ptr, ptr } %14
}

; Function Attrs: mustprogress nounwind uwtable
define linkonce_odr hidden noundef ptr @_ZNK4llvm14iterator_rangeIPKN5clang6interp6Record4BaseEE3endEv(ptr noundef nonnull align 8 dereferenceable(16) %0) #0 comdat align 2 {
  %2 = alloca ptr, align 8
  store ptr %0, ptr %2, align 8
  %3 = load ptr, ptr %2, align 8
  %4 = getelementptr inbounds nuw %"class.llvm::iterator_range", ptr %3, i32 0, i32 1
  %5 = load ptr, ptr %4, align 8
  ret ptr %5
}

; Function Attrs: mustprogress nounwind uwtable
define linkonce_odr hidden noundef ptr @_ZNK4llvm14iterator_rangeIPKN5clang6interp6Record4BaseEE5beginEv(ptr noundef nonnull align 8 dereferenceable(16) %0) #0 comdat align 2 {
  %2 = alloca ptr, align 8
  store ptr %0, ptr %2, align 8
  %3 = load ptr, ptr %2, align 8
  %4 = getelementptr inbounds nuw %"class.llvm::iterator_range", ptr %3, i32 0, i32 0
  %5 = load ptr, ptr %4, align 8
  ret ptr %5
}

; Function Attrs: mustprogress nounwind uwtable
define linkonce_odr hidden { ptr, ptr } @_ZNK5clang6interp6Record5basesEv(ptr noundef nonnull align 8 dereferenceable(656) %0) #0 comdat align 2 {
  %2 = alloca %"class.llvm::iterator_range", align 8
  %3 = alloca ptr, align 8
  store ptr %0, ptr %3, align 8
  %4 = load ptr, ptr %3, align 8
  %5 = getelementptr inbounds nuw %"class.clang::interp::Record", ptr %4, i32 0, i32 1
  %6 = call noundef ptr @_ZNK4llvm25SmallVectorTemplateCommonIN5clang6interp6Record4BaseEvE5beginEv(ptr noundef nonnull align 8 dereferenceable(16) %5)
  %7 = getelementptr inbounds nuw %"class.clang::interp::Record", ptr %4, i32 0, i32 1
  %8 = call noundef ptr @_ZNK4llvm25SmallVectorTemplateCommonIN5clang6interp6Record4BaseEvE3endEv(ptr noundef nonnull align 8 dereferenceable(16) %7)
  %9 = call { ptr, ptr } @_ZN4llvm10make_rangeIPKN5clang6interp6Record4BaseEEENS_14iterator_rangeIT_EES8_S8_(ptr noundef %6, ptr noundef %8)
  %10 = getelementptr inbounds nuw { ptr, ptr }, ptr %2, i32 0, i32 0
  %11 = extractvalue { ptr, ptr } %9, 0
  store ptr %11, ptr %10, align 8
  %12 = getelementptr inbounds nuw { ptr, ptr }, ptr %2, i32 0, i32 1
  %13 = extractvalue { ptr, ptr } %9, 1
  store ptr %13, ptr %12, align 8
  %14 = load { ptr, ptr }, ptr %2, align 8
  ret { ptr, ptr } %14
}

; Function Attrs: mustprogress nounwind uwtable
define internal void @_ZL10dtorRecordPN5clang6interp5BlockEPSt4bytePKNS0_10DescriptorE(ptr noundef %0, ptr noundef %1, ptr noundef %2) #0 {
  %4 = alloca ptr, align 8
  %5 = alloca ptr, align 8
  %6 = alloca ptr, align 8
  %7 = alloca ptr, align 8
  %8 = alloca %"class.llvm::iterator_range", align 8
  %9 = alloca ptr, align 8
  %10 = alloca ptr, align 8
  %11 = alloca ptr, align 8
  %12 = alloca ptr, align 8
  %13 = alloca %"class.llvm::iterator_range.63", align 8
  %14 = alloca ptr, align 8
  %15 = alloca ptr, align 8
  %16 = alloca ptr, align 8
  %17 = alloca ptr, align 8
  %18 = alloca %"class.llvm::iterator_range", align 8
  %19 = alloca ptr, align 8
  %20 = alloca ptr, align 8
  %21 = alloca ptr, align 8
  store ptr %0, ptr %4, align 8
  store ptr %1, ptr %5, align 8
  store ptr %2, ptr %6, align 8
  %22 = load ptr, ptr %6, align 8
  %23 = getelementptr inbounds nuw %"struct.clang::interp::Descriptor", ptr %22, i32 0, i32 5
  %24 = load ptr, ptr %23, align 8
  %25 = call { ptr, ptr } @_ZNK5clang6interp6Record5basesEv(ptr noundef nonnull align 8 dereferenceable(656) %24)
  %26 = getelementptr inbounds nuw { ptr, ptr }, ptr %8, i32 0, i32 0
  %27 = extractvalue { ptr, ptr } %25, 0
  store ptr %27, ptr %26, align 8
  %28 = getelementptr inbounds nuw { ptr, ptr }, ptr %8, i32 0, i32 1
  %29 = extractvalue { ptr, ptr } %25, 1
  store ptr %29, ptr %28, align 8
  store ptr %8, ptr %7, align 8
  %30 = load ptr, ptr %7, align 8
  %31 = call noundef ptr @_ZNK4llvm14iterator_rangeIPKN5clang6interp6Record4BaseEE5beginEv(ptr noundef nonnull align 8 dereferenceable(16) %30)
  store ptr %31, ptr %9, align 8
  %32 = load ptr, ptr %7, align 8
  %33 = call noundef ptr @_ZNK4llvm14iterator_rangeIPKN5clang6interp6Record4BaseEE3endEv(ptr noundef nonnull align 8 dereferenceable(16) %32)
  store ptr %33, ptr %10, align 8
  br label %34

34:                                               ; preds = %48, %3
  %35 = load ptr, ptr %9, align 8
  %36 = load ptr, ptr %10, align 8
  %37 = icmp ne ptr %35, %36
  br i1 %37, label %38, label %51

38:                                               ; preds = %34
  %39 = load ptr, ptr %9, align 8
  store ptr %39, ptr %11, align 8
  %40 = load ptr, ptr %4, align 8
  %41 = load ptr, ptr %5, align 8
  %42 = load ptr, ptr %11, align 8
  %43 = getelementptr inbounds nuw %"struct.clang::interp::Record::Base", ptr %42, i32 0, i32 2
  %44 = load ptr, ptr %43, align 8
  %45 = load ptr, ptr %11, align 8
  %46 = getelementptr inbounds nuw %"struct.clang::interp::Record::Base", ptr %45, i32 0, i32 1
  %47 = load i32, ptr %46, align 8
  call void @_ZL11destroyBasePN5clang6interp5BlockEPSt4bytePKNS0_10DescriptorEj(ptr noundef %40, ptr noundef %41, ptr noundef %44, i32 noundef %47)
  br label %48

48:                                               ; preds = %38
  %49 = load ptr, ptr %9, align 8
  %50 = getelementptr inbounds %"struct.clang::interp::Record::Base", ptr %49, i32 1
  store ptr %50, ptr %9, align 8
  br label %34

51:                                               ; preds = %34
  %52 = load ptr, ptr %6, align 8
  %53 = getelementptr inbounds nuw %"struct.clang::interp::Descriptor", ptr %52, i32 0, i32 5
  %54 = load ptr, ptr %53, align 8
  %55 = call { ptr, ptr } @_ZNK5clang6interp6Record6fieldsEv(ptr noundef nonnull align 8 dereferenceable(656) %54)
  %56 = getelementptr inbounds nuw { ptr, ptr }, ptr %13, i32 0, i32 0
  %57 = extractvalue { ptr, ptr } %55, 0
  store ptr %57, ptr %56, align 8
  %58 = getelementptr inbounds nuw { ptr, ptr }, ptr %13, i32 0, i32 1
  %59 = extractvalue { ptr, ptr } %55, 1
  store ptr %59, ptr %58, align 8
  store ptr %13, ptr %12, align 8
  %60 = load ptr, ptr %12, align 8
  %61 = call noundef ptr @_ZNK4llvm14iterator_rangeIPKN5clang6interp6Record5FieldEE5beginEv(ptr noundef nonnull align 8 dereferenceable(16) %60)
  store ptr %61, ptr %14, align 8
  %62 = load ptr, ptr %12, align 8
  %63 = call noundef ptr @_ZNK4llvm14iterator_rangeIPKN5clang6interp6Record5FieldEE3endEv(ptr noundef nonnull align 8 dereferenceable(16) %62)
  store ptr %63, ptr %15, align 8
  br label %64

64:                                               ; preds = %78, %51
  %65 = load ptr, ptr %14, align 8
  %66 = load ptr, ptr %15, align 8
  %67 = icmp ne ptr %65, %66
  br i1 %67, label %68, label %81

68:                                               ; preds = %64
  %69 = load ptr, ptr %14, align 8
  store ptr %69, ptr %16, align 8
  %70 = load ptr, ptr %4, align 8
  %71 = load ptr, ptr %5, align 8
  %72 = load ptr, ptr %16, align 8
  %73 = getelementptr inbounds nuw %"struct.clang::interp::Record::Field", ptr %72, i32 0, i32 2
  %74 = load ptr, ptr %73, align 8
  %75 = load ptr, ptr %16, align 8
  %76 = getelementptr inbounds nuw %"struct.clang::interp::Record::Field", ptr %75, i32 0, i32 1
  %77 = load i32, ptr %76, align 8
  call void @_ZL12destroyFieldPN5clang6interp5BlockEPSt4bytePKNS0_10DescriptorEj(ptr noundef %70, ptr noundef %71, ptr noundef %74, i32 noundef %77)
  br label %78

78:                                               ; preds = %68
  %79 = load ptr, ptr %14, align 8
  %80 = getelementptr inbounds %"struct.clang::interp::Record::Field", ptr %79, i32 1
  store ptr %80, ptr %14, align 8
  br label %64

81:                                               ; preds = %64
  %82 = load ptr, ptr %6, align 8
  %83 = getelementptr inbounds nuw %"struct.clang::interp::Descriptor", ptr %82, i32 0, i32 5
  %84 = load ptr, ptr %83, align 8
  %85 = call { ptr, ptr } @_ZNK5clang6interp6Record13virtual_basesEv(ptr noundef nonnull align 8 dereferenceable(656) %84)
  %86 = getelementptr inbounds nuw { ptr, ptr }, ptr %18, i32 0, i32 0
  %87 = extractvalue { ptr, ptr } %85, 0
  store ptr %87, ptr %86, align 8
  %88 = getelementptr inbounds nuw { ptr, ptr }, ptr %18, i32 0, i32 1
  %89 = extractvalue { ptr, ptr } %85, 1
  store ptr %89, ptr %88, align 8
  store ptr %18, ptr %17, align 8
  %90 = load ptr, ptr %17, align 8
  %91 = call noundef ptr @_ZNK4llvm14iterator_rangeIPKN5clang6interp6Record4BaseEE5beginEv(ptr noundef nonnull align 8 dereferenceable(16) %90)
  store ptr %91, ptr %19, align 8
  %92 = load ptr, ptr %17, align 8
  %93 = call noundef ptr @_ZNK4llvm14iterator_rangeIPKN5clang6interp6Record4BaseEE3endEv(ptr noundef nonnull align 8 dereferenceable(16) %92)
  store ptr %93, ptr %20, align 8
  br label %94

94:                                               ; preds = %108, %81
  %95 = load ptr, ptr %19, align 8
  %96 = load ptr, ptr %20, align 8
  %97 = icmp ne ptr %95, %96
  br i1 %97, label %98, label %111

98:                                               ; preds = %94
  %99 = load ptr, ptr %19, align 8
  store ptr %99, ptr %21, align 8
  %100 = load ptr, ptr %4, align 8
  %101 = load ptr, ptr %5, align 8
  %102 = load ptr, ptr %21, align 8
  %103 = getelementptr inbounds nuw %"struct.clang::interp::Record::Base", ptr %102, i32 0, i32 2
  %104 = load ptr, ptr %103, align 8
  %105 = load ptr, ptr %21, align 8
  %106 = getelementptr inbounds nuw %"struct.clang::interp::Record::Base", ptr %105, i32 0, i32 1
  %107 = load i32, ptr %106, align 8
  call void @_ZL11destroyBasePN5clang6interp5BlockEPSt4bytePKNS0_10DescriptorEj(ptr noundef %100, ptr noundef %101, ptr noundef %104, i32 noundef %107)
  br label %108

108:                                              ; preds = %98
  %109 = load ptr, ptr %19, align 8
  %110 = getelementptr inbounds %"struct.clang::interp::Record::Base", ptr %109, i32 1
  store ptr %110, ptr %19, align 8
  br label %94

111:                                              ; preds = %94
  ret void
}