; Function Attrs: mustprogress nounwind uwtable
define internal void @_ZL10dtorRecordPN5clang6interp5BlockEPSt4bytePKNS0_10DescriptorE(ptr noundef %0, ptr noundef %1, ptr nocapture noundef readonly %2) #0 {
  %4 = getelementptr inbounds nuw i8, ptr %2, i64 24
  %5 = load ptr, ptr %4, align 8
  %6 = getelementptr inbounds nuw i8, ptr %5, i64 8
  %7 = load ptr, ptr %6, align 8
  %8 = tail call noundef i64 @_ZNK4llvm15SmallVectorBaseIjE4sizeEv(ptr noundef nonnull align 8 dereferenceable(16) %6) #20
  %9 = getelementptr inbounds %"struct.clang::interp::Record::Base", ptr %7, i64 %8
  %.not45 = icmp eq i64 %8, 0
  br i1 %.not45, label %._crit_edge, label %.lr.ph

.lr.ph:                                           ; preds = %3, %.lr.ph
  %.046 = phi ptr [ %14, %.lr.ph ], [ %7, %3 ]
  %10 = getelementptr inbounds nuw i8, ptr %.046, i64 16
  %11 = load ptr, ptr %10, align 8
  %12 = getelementptr inbounds nuw i8, ptr %.046, i64 8
  %13 = load i32, ptr %12, align 8
  tail call fastcc void @_ZL11destroyBasePN5clang6interp5BlockEPSt4bytePKNS0_10DescriptorEj(ptr noundef %0, ptr noundef %1, ptr noundef %11, i32 noundef %13)
  %14 = getelementptr inbounds i8, ptr %.046, i64 32
  %.not = icmp eq ptr %14, %9
  br i1 %.not, label %._crit_edge, label %.lr.ph

._crit_edge:                                      ; preds = %.lr.ph, %3
  %15 = load ptr, ptr %4, align 8
  %16 = getelementptr inbounds nuw i8, ptr %15, i64 280
  %17 = load ptr, ptr %16, align 8
  %18 = tail call noundef i64 @_ZNK4llvm15SmallVectorBaseIjE4sizeEv(ptr noundef nonnull align 8 dereferenceable(16) %16) #20
  %19 = getelementptr inbounds %"struct.clang::interp::Record::Field", ptr %17, i64 %18
  %.not3547 = icmp eq i64 %18, 0
  br i1 %.not3547, label %._crit_edge51, label %.lr.ph50

.lr.ph50:                                         ; preds = %._crit_edge, %_ZL12destroyFieldPN5clang6interp5BlockEPSt4bytePKNS0_10DescriptorEj.exit
  %.03348 = phi ptr [ %29, %_ZL12destroyFieldPN5clang6interp5BlockEPSt4bytePKNS0_10DescriptorEj.exit ], [ %17, %._crit_edge ]
  %20 = getelementptr inbounds nuw i8, ptr %.03348, i64 16
  %21 = load ptr, ptr %20, align 8
  %22 = getelementptr inbounds nuw i8, ptr %21, i64 64
  %23 = load ptr, ptr %22, align 8
  %.not.i = icmp eq ptr %23, null
  br i1 %.not.i, label %_ZL12destroyFieldPN5clang6interp5BlockEPSt4bytePKNS0_10DescriptorEj.exit, label %24

24:                                               ; preds = %.lr.ph50
  %25 = getelementptr inbounds nuw i8, ptr %.03348, i64 8
  %26 = load i32, ptr %25, align 8
  %27 = zext i32 %26 to i64
  %28 = getelementptr inbounds i8, ptr %1, i64 %27
  tail call void %23(ptr noundef %0, ptr noundef %28, ptr noundef nonnull %21) #20
  br label %_ZL12destroyFieldPN5clang6interp5BlockEPSt4bytePKNS0_10DescriptorEj.exit

_ZL12destroyFieldPN5clang6interp5BlockEPSt4bytePKNS0_10DescriptorEj.exit: ; preds = %.lr.ph50, %24
  %29 = getelementptr inbounds i8, ptr %.03348, i64 24
  %.not35 = icmp eq ptr %29, %19
  br i1 %.not35, label %._crit_edge51, label %.lr.ph50

._crit_edge51:                                    ; preds = %_ZL12destroyFieldPN5clang6interp5BlockEPSt4bytePKNS0_10DescriptorEj.exit, %._crit_edge
  %30 = load ptr, ptr %4, align 8
  %31 = getelementptr inbounds nuw i8, ptr %30, i64 488
  %32 = load ptr, ptr %31, align 8
  %33 = tail call noundef i64 @_ZNK4llvm15SmallVectorBaseIjE4sizeEv(ptr noundef nonnull align 8 dereferenceable(16) %31) #20
  %34 = getelementptr inbounds %"struct.clang::interp::Record::Base", ptr %32, i64 %33
  %.not3652 = icmp eq i64 %33, 0
  br i1 %.not3652, label %._crit_edge56, label %.lr.ph55

.lr.ph55:                                         ; preds = %._crit_edge51, %.lr.ph55
  %.03453 = phi ptr [ %39, %.lr.ph55 ], [ %32, %._crit_edge51 ]
  %35 = getelementptr inbounds nuw i8, ptr %.03453, i64 16
  %36 = load ptr, ptr %35, align 8
  %37 = getelementptr inbounds nuw i8, ptr %.03453, i64 8
  %38 = load i32, ptr %37, align 8
  tail call fastcc void @_ZL11destroyBasePN5clang6interp5BlockEPSt4bytePKNS0_10DescriptorEj(ptr noundef %0, ptr noundef %1, ptr noundef %36, i32 noundef %38)
  %39 = getelementptr inbounds i8, ptr %.03453, i64 32
  %.not36 = icmp eq ptr %39, %34
  br i1 %.not36, label %._crit_edge56, label %.lr.ph55

._crit_edge56:                                    ; preds = %.lr.ph55, %._crit_edge51
  ret void
}